target datalayout = "e-m:e-p270:32:32-p271:32:32-p272:64:64-i64:64-i128:128-f80:128-n8:16:32:64-S128"
target triple = "x86_64-pc-linux-gnu"

%struct.HASH_SEQ_STATUS = type { ptr, i32, ptr, i8, i32 }
%struct.RecoveryLockXidEntry = type { i32, ptr }

@RecoveryLockXidHash = internal global ptr null, align 8

; Function Attrs: nounwind uwtable
define dso_local void @StandbyReleaseOldLocks(i32 noundef %0) #0 {
  %2 = alloca i32, align 4
  %3 = alloca %struct.HASH_SEQ_STATUS, align 8
  %4 = alloca ptr, align 8
  store i32 %0, ptr %2, align 4
  call void @llvm.lifetime.start.p0(i64 32, ptr %3) #8
  call void @llvm.lifetime.start.p0(i64 8, ptr %4) #8
  %5 = load ptr, ptr @RecoveryLockXidHash, align 8
  call void @hash_seq_init(ptr noundef %3, ptr noundef %5)
  br label %6

6:                                                ; preds = %22, %21, %14, %1
  %7 = call ptr @hash_seq_search(ptr noundef %3)
  store ptr %7, ptr %4, align 8
  %8 = icmp ne ptr %7, null
  br i1 %8, label %9, label %27

9:                                                ; preds = %6
  %10 = load ptr, ptr %4, align 8
  %11 = getelementptr inbounds nuw %struct.RecoveryLockXidEntry, ptr %10, i32 0, i32 0
  %12 = load i32, ptr %11, align 8
  %13 = call zeroext i1 @StandbyTransactionIdIsPrepared(i32 noundef %12)
  br i1 %13, label %14, label %15

14:                                               ; preds = %9
  br label %6, !llvm.loop !15

15:                                               ; preds = %9
  %16 = load ptr, ptr %4, align 8
  %17 = getelementptr inbounds nuw %struct.RecoveryLockXidEntry, ptr %16, i32 0, i32 0
  %18 = load i32, ptr %17, align 8
  %19 = load i32, ptr %2, align 4
  %20 = call zeroext i1 @TransactionIdPrecedes(i32 noundef %18, i32 noundef %19)
  br i1 %20, label %22, label %21

21:                                               ; preds = %15
  br label %6, !llvm.loop !15

22:                                               ; preds = %15
  %23 = load ptr, ptr %4, align 8
  call void @StandbyReleaseXidEntryLocks(ptr noundef %23)
  %24 = load ptr, ptr @RecoveryLockXidHash, align 8
  %25 = load ptr, ptr %4, align 8
  %26 = call ptr @hash_search(ptr noundef %24, ptr noundef %25, i32 noundef 2, ptr noundef null)
  br label %6, !llvm.loop !15

27:                                               ; preds = %6
  call void @llvm.lifetime.end.p0(i64 8, ptr %4) #8
  call void @llvm.lifetime.end.p0(i64 32, ptr %3) #8
  ret void
}