; Function Attrs: nounwind uwtable
define dso_local void @StandbyReleaseOldLocks(i32 noundef %0) local_unnamed_addr #0 {
  %2 = alloca %struct.HASH_SEQ_STATUS, align 8
  call void @llvm.lifetime.start.p0(i64 32, ptr nonnull %2) #7
  %3 = load ptr, ptr @RecoveryLockXidHash, align 8
  call void @hash_seq_init(ptr noundef nonnull %2, ptr noundef %3) #7
  %4 = call ptr @hash_seq_search(ptr noundef nonnull %2) #7
  %.not4 = icmp eq ptr %4, null
  br i1 %.not4, label %._crit_edge, label %.lr.ph

.lr.ph:                                           ; preds = %1, %.backedge
  %5 = phi ptr [ %14, %.backedge ], [ %4, %1 ]
  %6 = load i32, ptr %5, align 8
  %7 = call zeroext i1 @StandbyTransactionIdIsPrepared(i32 noundef %6) #7
  br i1 %7, label %.backedge, label %8

8:                                                ; preds = %.lr.ph
  %9 = load i32, ptr %5, align 8
  %10 = call zeroext i1 @TransactionIdPrecedes(i32 noundef %9, i32 noundef %0) #7
  br i1 %10, label %11, label %.backedge

11:                                               ; preds = %8
  call fastcc void @StandbyReleaseXidEntryLocks(ptr noundef %5)
  %12 = load ptr, ptr @RecoveryLockXidHash, align 8
  %13 = call ptr @hash_search(ptr noundef %12, ptr noundef nonnull %5, i32 noundef 2, ptr noundef null) #7
  br label %.backedge

.backedge:                                        ; preds = %11, %.lr.ph, %8
  %14 = call ptr @hash_seq_search(ptr noundef nonnull %2) #7
  %.not = icmp eq ptr %14, null
  br i1 %.not, label %._crit_edge, label %.lr.ph, !llvm.loop !16

._crit_edge:                                      ; preds = %.backedge, %1
  call void @llvm.lifetime.end.p0(i64 32, ptr nonnull %2) #7
  ret void
}